Certificate:
    Data:
        Version: 3 (0x2)
        Serial Number:
            93:bc:21:d2:cf:39:46:0d
        Signature Algorithm: sha1WithRSAEncryption
        Issuer: C=AU, ST=Some-State, O=Internet Widgits Pty Ltd, CN=widgets.com
        Validity
            Not Before: Feb 10 20:11:53 2016 GMT
            Not After : Feb  9 20:11:53 2019 GMT
        Subject: C=AU, ST=Some-State, O=Internet Widgits Pty Ltd, CN=widgets.com
        Subject Public Key Info:
            Public Key Algorithm: rsaEncryption
            RSA Public Key: (1024 bit)
                Modulus (1024 bit):
                    00:fd:1f:2d:f6:69:be:6b:c7:24:c4:2d:f8:0b:52:
                    e2:ce:85:fd:d7:8f:b7:e5:d3:3f:7f:24:9b:c0:2a:
                    0d:55:04:69:10:e3:98:93:f8:ee:b2:60:e6:a0:dc:
                    46:3e:20:76:3d:9f:5d:a4:69:46:07:69:8f:a0:e8:
                    1b:3a:01:55:66:a4:06:41:b1:92:0a:29:f4:df:47:
                    22:62:a1:44:06:c9:05:f8:c9:1d:a3:26:19:30:a5:
                    41:2e:74:d8:06:ed:2c:98:53:ef:6e:0f:6e:27:72:
                    d0:90:6f:2a:49:4d:03:1e:47:ec:4f:e6:20:df:8a:
                    13:53:68:bf:e4:2c:11:b6:fb
                Exponent: 65537 (0x10001)
        X509v3 extensions:
            X509v3 Subject Key Identifier: 
                CF:8A:9F:12:C1:E3:4C:E8:4E:57:92:75:7E:65:7C:AD:0B:8B:AA:F2
            X509v3 Authority Key Identifier: 
                keyid:CF:8A:9F:12:C1:E3:4C:E8:4E:57:92:75:7E:65:7C:AD:0B:8B:AA:F2
                DirName:/C=AU/ST=Some-State/O=Internet Widgits Pty Ltd/CN=widgets.com
                serial:93:BC:21:D2:CF:39:46:0D

            X509v3 Basic Constraints: 
                CA:TRUE
    Signature Algorithm: sha1WithRSAEncryption
        b8:a2:35:b0:df:1e:2a:2a:eb:71:a8:5c:c1:64:a6:51:c2:47:
        ed:a5:13:e8:1a:1a:34:c1:45:9d:75:a9:e1:3a:2a:57:e2:8c:
        5a:7d:42:19:43:06:c8:5c:e7:bf:0c:f8:7c:fb:5b:4d:1e:60:
        20:68:99:ce:10:77:23:6d:1b:b0:56:b2:b3:ed:14:69:a3:d1:
        df:20:a2:5c:14:90:ce:35:9f:3e:88:60:fc:af:66:c3:40:9d:
        dc:b1:0b:55:9c:f9:37:bf:ef:7a:40:1f:33:70:b9:98:ae:61:
        48:cc:dc:fd:e5:ed:c8:31:0f:8c:43:f7:6a:d2:4a:23:aa:26:
        66:51
-----BEGIN CERTIFICATE-----
MIIC9TCCAl6gAwIBAgIJAJO8IdLPOUYNMA0GCSqGSIb3DQEBBQUAMFsxCzAJBgNV
BAYTAkFVMRMwEQYDVQQIEwpTb21lLVN0YXRlMSEwHwYDVQQKExhJbnRlcm5ldCBX
aWRnaXRzIFB0eSBMdGQxFDASBgNVBAMTC3dpZGdldHMuY29tMB4XDTE2MDIxMDIw
MTE1M1oXDTE5MDIwOTIwMTE1M1owWzELMAkGA1UEBhMCQVUxEzARBgNVBAgTClNv
bWUtU3RhdGUxITAfBgNVBAoTGEludGVybmV0IFdpZGdpdHMgUHR5IEx0ZDEUMBIG
A1UEAxMLd2lkZ2V0cy5jb20wgZ8wDQYJKoZIhvcNAQEBBQADgY0AMIGJAoGBAP0f
LfZpvmvHJMQt+AtS4s6F/dePt+XTP38km8AqDVUEaRDjmJP47rJg5qDcRj4gdj2f
XaRpRgdpj6DoGzoBVWakBkGxkgop9N9HImKhRAbJBfjJHaMmGTClQS502AbtLJhT
724Pbidy0JBvKklNAx5H7E/mIN+KE1Nov+QsEbb7AgMBAAGjgcAwgb0wHQYDVR0O
BBYEFM+KnxLB40zoTleSdX5lfK0Li6ryMIGNBgNVHSMEgYUwgYKAFM+KnxLB40zo
TleSdX5lfK0Li6ryoV+kXTBbMQswCQYDVQQGEwJBVTETMBEGA1UECBMKU29tZS1T
dGF0ZTEhMB8GA1UEChMYSW50ZXJuZXQgV2lkZ2l0cyBQdHkgTHRkMRQwEgYDVQQD
Ewt3aWRnZXRzLmNvbYIJAJO8IdLPOUYNMAwGA1UdEwQFMAMBAf8wDQYJKoZIhvcN
AQEFBQADgYEAuKI1sN8eKirrcahcwWSmUcJH7aUT6BoaNMFFnXWp4ToqV+KMWn1C
GUMGyFznvwz4fPtbTR5gIGiZzhB3I20bsFays+0UaaPR3yCiXBSQzjWfPohg/K9m
w0Cd3LELVZz5N7/vekAfM3C5mK5hSMzc/eXtyDEPjEP3atJKI6omZlE=
-----END CERTIFICATE-----
