Certificate:
    Data:
        Version: 3 (0x2)
        Serial Number:
            93:bc:21:d2:cf:39:46:11
        Signature Algorithm: sha1WithRSAEncryption
        Issuer: C=AU, ST=Some-State, O=Internet Widgits Pty Ltd, CN=widgets.com
        Validity
            Not Before: Feb 10 21:47:49 2016 GMT
            Not After : Feb  9 21:47:49 2017 GMT
        Subject: CN=anypresence.com
        Subject Public Key Info:
            Public Key Algorithm: rsaEncryption
            RSA Public Key: (1024 bit)
                Modulus (1024 bit):
                    00:b2:70:1e:02:d2:ae:26:80:e0:3f:09:03:ec:ec:
                    3b:03:f4:94:7b:cc:62:9c:b6:84:e2:1f:0c:56:ee:
                    86:86:77:fd:76:6f:12:ed:bd:83:56:81:b2:37:ae:
                    8f:e7:40:7b:00:f0:7b:6b:63:e9:33:48:5d:43:63:
                    61:ee:20:61:6e:2e:00:d1:82:a2:9c:b5:45:f8:73:
                    c3:69:14:80:5a:d2:26:12:e7:07:6b:5e:6c:16:dc:
                    88:f2:26:2e:7d:d5:aa:63:cd:20:cb:9b:ce:41:f8:
                    74:79:10:60:75:cf:3c:f5:8d:38:35:7a:61:a5:c9:
                    c4:56:b3:38:28:49:47:39:2b
                Exponent: 65537 (0x10001)
        X509v3 extensions:
            X509v3 Basic Constraints: 
                CA:FALSE
            Netscape Comment: 
                OpenSSL Generated Certificate
            X509v3 Subject Key Identifier: 
                EE:58:0D:68:FC:F7:7E:68:4B:A9:70:99:95:F3:81:08:AB:67:34:77
            X509v3 Authority Key Identifier: 
                keyid:CF:8A:9F:12:C1:E3:4C:E8:4E:57:92:75:7E:65:7C:AD:0B:8B:AA:F2

    Signature Algorithm: sha1WithRSAEncryption
        be:d2:69:9c:d3:31:b6:d7:6a:63:a2:0b:df:ec:1b:d6:0e:ae:
        18:2f:9e:9d:3d:ed:d3:c7:8b:f5:72:c1:a2:a1:d1:e9:1f:93:
        8b:17:b1:ac:21:38:ed:66:07:2e:dc:15:3c:21:b6:96:72:7f:
        c6:0c:71:6e:11:e6:7a:6e:05:ee:00:94:27:c9:f1:60:a2:15:
        86:72:ec:c6:6d:3f:fc:c0:4d:aa:e4:6a:f6:ce:38:10:95:1d:
        d2:4a:f1:e3:19:8e:a4:d2:a0:24:fe:ee:9a:0b:03:03:93:63:
        bb:df:8d:f5:fe:f4:01:62:b0:21:aa:47:46:85:6a:46:63:d7:
        34:65
-----BEGIN CERTIFICATE-----
MIICbjCCAdegAwIBAgIJAJO8IdLPOUYRMA0GCSqGSIb3DQEBBQUAMFsxCzAJBgNV
BAYTAkFVMRMwEQYDVQQIEwpTb21lLVN0YXRlMSEwHwYDVQQKExhJbnRlcm5ldCBX
aWRnaXRzIFB0eSBMdGQxFDASBgNVBAMTC3dpZGdldHMuY29tMB4XDTE2MDIxMDIx
NDc0OVoXDTE3MDIwOTIxNDc0OVowGjEYMBYGA1UEAxMPYW55cHJlc2VuY2UuY29t
MIGfMA0GCSqGSIb3DQEBAQUAA4GNADCBiQKBgQCycB4C0q4mgOA/CQPs7DsD9JR7
zGKctoTiHwxW7oaGd/12bxLtvYNWgbI3ro/nQHsA8HtrY+kzSF1DY2HuIGFuLgDR
gqKctUX4c8NpFIBa0iYS5wdrXmwW3IjyJi591apjzSDLm85B+HR5EGB1zzz1jTg1
emGlycRWszgoSUc5KwIDAQABo3sweTAJBgNVHRMEAjAAMCwGCWCGSAGG+EIBDQQf
Fh1PcGVuU1NMIEdlbmVyYXRlZCBDZXJ0aWZpY2F0ZTAdBgNVHQ4EFgQU7lgNaPz3
fmhLqXCZlfOBCKtnNHcwHwYDVR0jBBgwFoAUz4qfEsHjTOhOV5J1fmV8rQuLqvIw
DQYJKoZIhvcNAQEFBQADgYEAvtJpnNMxttdqY6IL3+wb1g6uGC+enT3t08eL9XLB
oqHR6R+TixexrCE47WYHLtwVPCG2lnJ/xgxxbhHmem4F7gCUJ8nxYKIVhnLsxm0/
/MBNquRq9s44EJUd0krx4xmOpNKgJP7umgsDA5Nju9+N9f70AWKwIapHRoVqRmPX
NGU=
-----END CERTIFICATE-----
